target datalayout = "e-m:e-p270:32:32-p271:32:32-p272:64:64-i64:64-i128:128-f80:128-n8:16:32:64-S128"
target triple = "x86_64-pc-linux-gnu"

%"class.gmx::AtomsRemover" = type { %"class.std::vector" }
%"class.std::vector" = type { %"struct.std::_Vector_base" }
%"struct.std::_Vector_base" = type { %"struct.std::_Vector_base<char, std::allocator<char>>::_Vector_impl" }
%"struct.std::_Vector_base<char, std::allocator<char>>::_Vector_impl" = type { %"struct.std::_Vector_base<char, std::allocator<char>>::_Vector_impl_data" }
%"struct.std::_Vector_base<char, std::allocator<char>>::_Vector_impl_data" = type { ptr, ptr, ptr }
%class.anon = type { i8 }
%"struct.std::_Vector_base.1" = type { %"struct.std::_Vector_base<gmx::BasicVector<float>, std::allocator<gmx::BasicVector<float>>>::_Vector_impl" }
%"struct.std::_Vector_base<gmx::BasicVector<float>, std::allocator<gmx::BasicVector<float>>>::_Vector_impl" = type { %"struct.std::_Vector_base<gmx::BasicVector<float>, std::allocator<gmx::BasicVector<float>>>::_Vector_impl_data" }
%"struct.std::_Vector_base<gmx::BasicVector<float>, std::allocator<gmx::BasicVector<float>>>::_Vector_impl_data" = type { ptr, ptr, ptr }
%"class.gmx::BasicVector" = type { [3 x float] }

@.str.1 = private unnamed_addr constant [131 x i8] c"generated/home/dtcxzyw/WorkSpace/Projects/compilers/llvm-opt-benchmark/bench/gromacs/gromacs/src/gromacs/topology/atomsbuilder.cpp\00", align 1
@.str.7 = private unnamed_addr constant [37 x i8] c"container->size() == removed_.size()\00", align 1
@.str.8 = private unnamed_addr constant [49 x i8] c"Mismatching contained passed for removing values\00", align 1
@"__PRETTY_FUNCTION__._ZZNK3gmx12AtomsRemover20removeMarkedElementsEPSt6vectorINS_11BasicVectorIfEESaIS3_EEENK3$_0clEv" = private unnamed_addr constant [105 x i8] c"auto gmx::AtomsRemover::removeMarkedElements(std::vector<RVec> *)::(anonymous class)::operator()() const\00", align 1

; Function Attrs: mustprogress nounwind uwtable
define linkonce_odr noundef nonnull align 4 dereferenceable(12) ptr @_ZNSt6vectorIN3gmx11BasicVectorIfEESaIS2_EEixEm(ptr noundef nonnull align 8 dereferenceable(24) %0, i64 noundef %1) #0 comdat align 2 {
  %3 = alloca ptr, align 8
  %4 = alloca i64, align 8
  store ptr %0, ptr %3, align 8, !tbaa !119
  store i64 %1, ptr %4, align 8, !tbaa !42
  %5 = load ptr, ptr %3, align 8
  %6 = getelementptr inbounds nuw %"struct.std::_Vector_base.1", ptr %5, i32 0, i32 0
  %7 = getelementptr inbounds nuw %"struct.std::_Vector_base<gmx::BasicVector<float>, std::allocator<gmx::BasicVector<float>>>::_Vector_impl_data", ptr %6, i32 0, i32 0
  %8 = load ptr, ptr %7, align 8, !tbaa !126
  %9 = load i64, ptr %4, align 8, !tbaa !42
  %10 = getelementptr inbounds nuw %"class.gmx::BasicVector", ptr %8, i64 %9
  ret ptr %10
}

; Function Attrs: mustprogress nounwind uwtable
define linkonce_odr noundef nonnull align 1 dereferenceable(1) ptr @_ZNKSt6vectorIcSaIcEEixEm(ptr noundef nonnull align 8 dereferenceable(24) %0, i64 noundef %1) #0 comdat align 2 {
  %3 = alloca ptr, align 8
  %4 = alloca i64, align 8
  store ptr %0, ptr %3, align 8, !tbaa !80
  store i64 %1, ptr %4, align 8, !tbaa !42
  %5 = load ptr, ptr %3, align 8
  %6 = getelementptr inbounds nuw %"struct.std::_Vector_base", ptr %5, i32 0, i32 0
  %7 = getelementptr inbounds nuw %"struct.std::_Vector_base<char, std::allocator<char>>::_Vector_impl_data", ptr %6, i32 0, i32 0
  %8 = load ptr, ptr %7, align 8, !tbaa !86
  %9 = load i64, ptr %4, align 8, !tbaa !42
  %10 = getelementptr inbounds nuw i8, ptr %8, i64 %9
  ret ptr %10
}

; Function Attrs: inlinehint mustprogress uwtable
define internal void @"_ZZNK3gmx12AtomsRemover20removeMarkedElementsEPSt6vectorINS_11BasicVectorIfEESaIS3_EEENK3$_0clEv"(ptr noundef nonnull align 1 dereferenceable(1) %0) #3 align 2 {
  %2 = alloca ptr, align 8
  store ptr %0, ptr %2, align 8, !tbaa !96
  call void @_ZN3gmx8internal13assertHandlerEPKcS2_S2_S2_i(ptr noundef @.str.7, ptr noundef @.str.8, ptr noundef @"__PRETTY_FUNCTION__._ZZNK3gmx12AtomsRemover20removeMarkedElementsEPSt6vectorINS_11BasicVectorIfEESaIS3_EEENK3$_0clEv", ptr noundef @.str.1, i32 noundef 238) #14
  unreachable
}

; Function Attrs: mustprogress nounwind uwtable
define linkonce_odr noundef i64 @_ZNKSt6vectorIcSaIcEE4sizeEv(ptr noundef nonnull align 8 dereferenceable(24) %0) #0 comdat align 2 {
  %2 = alloca ptr, align 8
  store ptr %0, ptr %2, align 8, !tbaa !80
  %3 = load ptr, ptr %2, align 8
  %4 = getelementptr inbounds nuw %"struct.std::_Vector_base", ptr %3, i32 0, i32 0
  %5 = getelementptr inbounds nuw %"struct.std::_Vector_base<char, std::allocator<char>>::_Vector_impl_data", ptr %4, i32 0, i32 1
  %6 = load ptr, ptr %5, align 8, !tbaa !88
  %7 = getelementptr inbounds nuw %"struct.std::_Vector_base", ptr %3, i32 0, i32 0
  %8 = getelementptr inbounds nuw %"struct.std::_Vector_base<char, std::allocator<char>>::_Vector_impl_data", ptr %7, i32 0, i32 0
  %9 = load ptr, ptr %8, align 8, !tbaa !86
  %10 = ptrtoint ptr %6 to i64
  %11 = ptrtoint ptr %9 to i64
  %12 = sub i64 %10, %11
  ret i64 %12
}

; Function Attrs: mustprogress nounwind uwtable
define linkonce_odr noundef i64 @_ZNKSt6vectorIN3gmx11BasicVectorIfEESaIS2_EE4sizeEv(ptr noundef nonnull align 8 dereferenceable(24) %0) #0 comdat align 2 {
  %2 = alloca ptr, align 8
  store ptr %0, ptr %2, align 8, !tbaa !119
  %3 = load ptr, ptr %2, align 8
  %4 = getelementptr inbounds nuw %"struct.std::_Vector_base.1", ptr %3, i32 0, i32 0
  %5 = getelementptr inbounds nuw %"struct.std::_Vector_base<gmx::BasicVector<float>, std::allocator<gmx::BasicVector<float>>>::_Vector_impl_data", ptr %4, i32 0, i32 1
  %6 = load ptr, ptr %5, align 8, !tbaa !123
  %7 = getelementptr inbounds nuw %"struct.std::_Vector_base.1", ptr %3, i32 0, i32 0
  %8 = getelementptr inbounds nuw %"struct.std::_Vector_base<gmx::BasicVector<float>, std::allocator<gmx::BasicVector<float>>>::_Vector_impl_data", ptr %7, i32 0, i32 0
  %9 = load ptr, ptr %8, align 8, !tbaa !126
  %10 = ptrtoint ptr %6 to i64
  %11 = ptrtoint ptr %9 to i64
  %12 = sub i64 %10, %11
  %13 = sdiv exact i64 %12, 12
  ret i64 %13
}

; Function Attrs: mustprogress uwtable
define void @_ZNK3gmx12AtomsRemover20removeMarkedElementsEPSt6vectorINS_11BasicVectorIfEESaIS3_EE(ptr noundef nonnull align 8 dereferenceable(24) %0, ptr noundef %1) #1 align 2 {
  %3 = alloca ptr, align 8
  %4 = alloca ptr, align 8
  %5 = alloca %class.anon, align 1
  %6 = alloca i32, align 4
  %7 = alloca i64, align 8
  store ptr %0, ptr %3, align 8, !tbaa !76
  store ptr %1, ptr %4, align 8, !tbaa !119
  %8 = load ptr, ptr %3, align 8
  %9 = load ptr, ptr %4, align 8, !tbaa !119
  %10 = call noundef i64 @_ZNKSt6vectorIN3gmx11BasicVectorIfEESaIS2_EE4sizeEv(ptr noundef nonnull align 8 dereferenceable(24) %9) #13
  %11 = getelementptr inbounds nuw %"class.gmx::AtomsRemover", ptr %8, i32 0, i32 0
  %12 = call noundef i64 @_ZNKSt6vectorIcSaIcEE4sizeEv(ptr noundef nonnull align 8 dereferenceable(24) %11) #13
  %13 = icmp eq i64 %10, %12
  call void @llvm.lifetime.start.p0(i64 1, ptr %5) #13
  br i1 %13, label %14, label %15

14:                                               ; preds = %2
  br label %16

15:                                               ; preds = %2
  call void @"_ZZNK3gmx12AtomsRemover20removeMarkedElementsEPSt6vectorINS_11BasicVectorIfEESaIS3_EEENK3$_0clEv"(ptr noundef nonnull align 1 dereferenceable(1) %5)
  br label %16

16:                                               ; preds = %15, %14
  call void @llvm.lifetime.end.p0(i64 1, ptr %5) #13
  call void @llvm.lifetime.start.p0(i64 4, ptr %6) #13
  store i32 0, ptr %6, align 4, !tbaa !38
  call void @llvm.lifetime.start.p0(i64 8, ptr %7) #13
  store i64 0, ptr %7, align 8, !tbaa !42
  br label %17

17:                                               ; preds = %40, %16
  %18 = load i64, ptr %7, align 8, !tbaa !42
  %19 = getelementptr inbounds nuw %"class.gmx::AtomsRemover", ptr %8, i32 0, i32 0
  %20 = call noundef i64 @_ZNKSt6vectorIcSaIcEE4sizeEv(ptr noundef nonnull align 8 dereferenceable(24) %19) #13
  %21 = icmp ult i64 %18, %20
  br i1 %21, label %23, label %22

22:                                               ; preds = %17
  call void @llvm.lifetime.end.p0(i64 8, ptr %7) #13
  br label %43

23:                                               ; preds = %17
  %24 = getelementptr inbounds nuw %"class.gmx::AtomsRemover", ptr %8, i32 0, i32 0
  %25 = load i64, ptr %7, align 8, !tbaa !42
  %26 = call noundef nonnull align 1 dereferenceable(1) ptr @_ZNKSt6vectorIcSaIcEEixEm(ptr noundef nonnull align 8 dereferenceable(24) %24, i64 noundef %25) #13
  %27 = load i8, ptr %26, align 1, !tbaa !63
  %28 = icmp ne i8 %27, 0
  br i1 %28, label %39, label %29

29:                                               ; preds = %23
  %30 = load ptr, ptr %4, align 8, !tbaa !119
  %31 = load i64, ptr %7, align 8, !tbaa !42
  %32 = call noundef nonnull align 4 dereferenceable(12) ptr @_ZNSt6vectorIN3gmx11BasicVectorIfEESaIS2_EEixEm(ptr noundef nonnull align 8 dereferenceable(24) %30, i64 noundef %31) #13
  %33 = load ptr, ptr %4, align 8, !tbaa !119
  %34 = load i32, ptr %6, align 4, !tbaa !38
  %35 = sext i32 %34 to i64
  %36 = call noundef nonnull align 4 dereferenceable(12) ptr @_ZNSt6vectorIN3gmx11BasicVectorIfEESaIS2_EEixEm(ptr noundef nonnull align 8 dereferenceable(24) %33, i64 noundef %35) #13
  call void @llvm.memcpy.p0.p0.i64(ptr align 4 %36, ptr align 4 %32, i64 12, i1 false), !tbaa.struct !121
  %37 = load i32, ptr %6, align 4, !tbaa !38
  %38 = add nsw i32 %37, 1
  store i32 %38, ptr %6, align 4, !tbaa !38
  br label %39

39:                                               ; preds = %29, %23
  br label %40

40:                                               ; preds = %39
  %41 = load i64, ptr %7, align 8, !tbaa !42
  %42 = add i64 %41, 1
  store i64 %42, ptr %7, align 8, !tbaa !42
  br label %17, !llvm.loop !122

43:                                               ; preds = %22
  %44 = load ptr, ptr %4, align 8, !tbaa !119
  %45 = load i32, ptr %6, align 4, !tbaa !38
  %46 = sext i32 %45 to i64
  call void @_ZNSt6vectorIN3gmx11BasicVectorIfEESaIS2_EE6resizeEm(ptr noundef nonnull align 8 dereferenceable(24) %44, i64 noundef %46)
  call void @llvm.lifetime.end.p0(i64 4, ptr %6) #13
  ret void
}