; Function Attrs: mustprogress uwtable
define void @_ZNK3gmx12AtomsRemover20removeMarkedElementsEPSt6vectorINS_11BasicVectorIfEESaIS3_EE(ptr noundef nonnull readonly align 8 captures(none) dereferenceable(24) %0, ptr noundef %1) local_unnamed_addr #2 align 2 {
  %3 = getelementptr inbounds nuw i8, ptr %1, i64 8
  %4 = load ptr, ptr %3, align 8, !tbaa !67
  %5 = load ptr, ptr %1, align 8, !tbaa !70
  %6 = ptrtoint ptr %4 to i64
  %7 = ptrtoint ptr %5 to i64
  %8 = sub i64 %6, %7
  %9 = sdiv exact i64 %8, 12
  %10 = getelementptr inbounds nuw i8, ptr %0, i64 8
  %11 = load ptr, ptr %10, align 8, !tbaa !64
  %12 = load ptr, ptr %0, align 8, !tbaa !61
  %13 = ptrtoint ptr %11 to i64
  %14 = ptrtoint ptr %12 to i64
  %15 = sub i64 %13, %14
  %16 = icmp eq i64 %9, %15
  br i1 %16, label %.preheader, label %17

.preheader:                                       ; preds = %2
  %.not14 = icmp eq ptr %11, %12
  br i1 %.not14, label %._crit_edge, label %.lr.ph

17:                                               ; preds = %2
  tail call void @_ZN3gmx8internal13assertHandlerEPKcS2_S2_S2_i(ptr noundef nonnull @.str.7, ptr noundef nonnull @.str.8, ptr noundef nonnull @"__PRETTY_FUNCTION__._ZZNK3gmx12AtomsRemover20removeMarkedElementsEPSt6vectorINS_11BasicVectorIfEESaIS3_EEENK3$_0clEv", ptr noundef nonnull @.str.1, i32 noundef 238) #17
  unreachable

._crit_edge.loopexit:                             ; preds = %29
  %18 = sext i32 %.1 to i64
  br label %._crit_edge

._crit_edge:                                      ; preds = %._crit_edge.loopexit, %.preheader
  %.011.lcssa = phi i64 [ 0, %.preheader ], [ %18, %._crit_edge.loopexit ]
  tail call void @_ZNSt6vectorIN3gmx11BasicVectorIfEESaIS2_EE6resizeEm(ptr noundef nonnull align 8 dereferenceable(24) %1, i64 noundef %.011.lcssa)
  ret void

.lr.ph:                                           ; preds = %.preheader, %29
  %19 = phi ptr [ %30, %29 ], [ %12, %.preheader ]
  %20 = phi ptr [ %31, %29 ], [ %11, %.preheader ]
  %.013 = phi i64 [ %32, %29 ], [ 0, %.preheader ]
  %.01112 = phi i32 [ %.1, %29 ], [ 0, %.preheader ]
  %21 = getelementptr inbounds nuw i8, ptr %19, i64 %.013
  %22 = load i8, ptr %21, align 1, !tbaa !47
  %.not = icmp eq i8 %22, 0
  br i1 %.not, label %23, label %29

23:                                               ; preds = %.lr.ph
  %24 = load ptr, ptr %1, align 8, !tbaa !70
  %25 = getelementptr inbounds nuw %"class.gmx::BasicVector", ptr %24, i64 %.013
  %26 = sext i32 %.01112 to i64
  %27 = getelementptr inbounds nuw %"class.gmx::BasicVector", ptr %24, i64 %26
  tail call void @llvm.memcpy.p0.p0.i64(ptr noundef nonnull align 4 dereferenceable(12) %27, ptr noundef nonnull align 4 dereferenceable(12) %25, i64 12, i1 false), !tbaa.struct !71
  %28 = add nsw i32 %.01112, 1
  %.pre = load ptr, ptr %10, align 8, !tbaa !64
  %.pre15 = load ptr, ptr %0, align 8, !tbaa !61
  br label %29

29:                                               ; preds = %.lr.ph, %23
  %30 = phi ptr [ %19, %.lr.ph ], [ %.pre15, %23 ]
  %31 = phi ptr [ %20, %.lr.ph ], [ %.pre, %23 ]
  %.1 = phi i32 [ %.01112, %.lr.ph ], [ %28, %23 ]
  %32 = add nuw i64 %.013, 1
  %33 = ptrtoint ptr %31 to i64
  %34 = ptrtoint ptr %30 to i64
  %35 = sub i64 %33, %34
  %36 = icmp ult i64 %32, %35
  br i1 %36, label %.lr.ph, label %._crit_edge.loopexit, !llvm.loop !72
}